target datalayout = "e-m:e-p270:32:32-p271:32:32-p272:64:64-i64:64-i128:128-f80:128-n8:16:32:64-S128"
target triple = "x86_64-pc-linux-gnu"

%struct.URLContext = type { ptr, ptr, ptr, ptr, i32, i32, i32, i32, %struct.AVIOInterruptCB, i64, ptr, ptr, i32 }
%struct.AVIOInterruptCB = type { ptr, ptr }
%struct.concat_data = type { ptr, i64, i64, i64 }
%struct.concat_nodes = type { ptr, i64 }
%struct.AVBPrint = type { ptr, i32, i32, i32, [1 x i8], [1000 x i8] }

@.str.5 = private unnamed_addr constant [21 x i8] c"URL %s lacks prefix\0A\00", align 1
@.str.7 = private unnamed_addr constant [9 x i8] c"concatf:\00", align 1
@.str.8 = private unnamed_addr constant [5 x i8] c" \0A\09\0D\00", align 1
@.str.9 = private unnamed_addr constant [3 x i8] c"\0D\0A\00", align 1

; Function Attrs: cold nounwind optsize uwtable
define internal i32 @concatf_open(ptr noundef %0, ptr noundef %1, i32 noundef %2) #0 {
  %4 = alloca i32, align 4
  %5 = alloca ptr, align 8
  %6 = alloca ptr, align 8
  %7 = alloca i32, align 4
  %8 = alloca %struct.AVBPrint, align 8
  %9 = alloca ptr, align 8
  %10 = alloca ptr, align 8
  %11 = alloca ptr, align 8
  %12 = alloca i64, align 8
  %13 = alloca i32, align 4
  %14 = alloca i64, align 8
  %15 = alloca i32, align 4
  %16 = alloca i32, align 4
  %17 = alloca ptr, align 8
  %18 = alloca ptr, align 8
  %19 = alloca ptr, align 8
  %20 = alloca i64, align 8
  %21 = alloca i64, align 8
  %22 = alloca i32, align 4
  store ptr %0, ptr %5, align 8, !tbaa !4
  store ptr %1, ptr %6, align 8, !tbaa !9
  store i32 %2, ptr %7, align 4, !tbaa !11
  call void @llvm.lifetime.start.p0(i64 1024, ptr %8) #6
  call void @llvm.lifetime.start.p0(i64 8, ptr %9) #6
  %23 = load ptr, ptr %5, align 8, !tbaa !4
  %24 = getelementptr inbounds nuw %struct.URLContext, ptr %23, i32 0, i32 2
  %25 = load ptr, ptr %24, align 8, !tbaa !15
  store ptr %25, ptr %9, align 8, !tbaa !20
  call void @llvm.lifetime.start.p0(i64 8, ptr %10) #6
  store ptr null, ptr %10, align 8, !tbaa !44
  call void @llvm.lifetime.start.p0(i64 8, ptr %11) #6
  call void @llvm.lifetime.start.p0(i64 8, ptr %12) #6
  store i64 0, ptr %12, align 8, !tbaa !13
  call void @llvm.lifetime.start.p0(i64 4, ptr %13) #6
  store i32 0, ptr %13, align 4, !tbaa !11
  call void @llvm.lifetime.start.p0(i64 8, ptr %14) #6
  store i64 0, ptr %14, align 8, !tbaa !13
  call void @llvm.lifetime.start.p0(i64 4, ptr %15) #6
  %26 = load ptr, ptr %6, align 8, !tbaa !9
  %27 = call i32 @av_strstart(ptr noundef %26, ptr noundef @.str.7, ptr noundef %6)
  %28 = icmp ne i32 %27, 0
  br i1 %28, label %32, label %29

29:                                               ; preds = %3
  %30 = load ptr, ptr %5, align 8, !tbaa !4
  %31 = load ptr, ptr %6, align 8, !tbaa !9
  call void (ptr, i32, ptr, ...) @av_log(ptr noundef %30, i32 noundef 16, ptr noundef @.str.5, ptr noundef %31)
  store i32 -22, ptr %4, align 4
  store i32 1, ptr %16, align 4
  br label %180

32:                                               ; preds = %3
  %33 = load ptr, ptr %6, align 8, !tbaa !9
  %34 = load i8, ptr %33, align 1, !tbaa !22
  %35 = icmp ne i8 %34, 0
  br i1 %35, label %37, label %36

36:                                               ; preds = %32
  store i32 -2, ptr %4, align 4
  store i32 1, ptr %16, align 4
  br label %180

37:                                               ; preds = %32
  %38 = load ptr, ptr %6, align 8, !tbaa !9
  %39 = load ptr, ptr %5, align 8, !tbaa !4
  %40 = getelementptr inbounds nuw %struct.URLContext, ptr %39, i32 0, i32 8
  %41 = load ptr, ptr %5, align 8, !tbaa !4
  %42 = getelementptr inbounds nuw %struct.URLContext, ptr %41, i32 0, i32 10
  %43 = load ptr, ptr %42, align 8, !tbaa !29
  %44 = load ptr, ptr %5, align 8, !tbaa !4
  %45 = getelementptr inbounds nuw %struct.URLContext, ptr %44, i32 0, i32 11
  %46 = load ptr, ptr %45, align 8, !tbaa !30
  %47 = call i32 @ffio_open_whitelist(ptr noundef %10, ptr noundef %38, i32 noundef 1, ptr noundef %40, ptr noundef null, ptr noundef %43, ptr noundef %46)
  store i32 %47, ptr %15, align 4, !tbaa !11
  %48 = load i32, ptr %15, align 4, !tbaa !11
  %49 = icmp slt i32 %48, 0
  br i1 %49, label %50, label %52

50:                                               ; preds = %37
  %51 = load i32, ptr %15, align 4, !tbaa !11
  store i32 %51, ptr %4, align 4
  store i32 1, ptr %16, align 4
  br label %180

52:                                               ; preds = %37
  call void @av_bprint_init(ptr noundef %8, i32 noundef 0, i32 noundef -1)
  %53 = load ptr, ptr %10, align 8, !tbaa !44
  %54 = call i32 @avio_read_to_bprint(ptr noundef %53, ptr noundef %8, i64 noundef -1)
  store i32 %54, ptr %15, align 4, !tbaa !11
  %55 = call i32 @avio_closep(ptr noundef %10)
  %56 = load i32, ptr %15, align 4, !tbaa !11
  %57 = icmp slt i32 %56, 0
  br i1 %57, label %58, label %61

58:                                               ; preds = %52
  %59 = call i32 @av_bprint_finalize(ptr noundef %8, ptr noundef null)
  %60 = load i32, ptr %15, align 4, !tbaa !11
  store i32 %60, ptr %4, align 4
  store i32 1, ptr %16, align 4
  br label %180

61:                                               ; preds = %52
  %62 = getelementptr inbounds nuw %struct.AVBPrint, ptr %8, i32 0, i32 0
  %63 = load ptr, ptr %62, align 8, !tbaa !46
  store ptr %63, ptr %11, align 8, !tbaa !9
  br label %64

64:                                               ; preds = %158, %61
  %65 = load ptr, ptr %11, align 8, !tbaa !9
  %66 = load i8, ptr %65, align 1, !tbaa !22
  %67 = icmp ne i8 %66, 0
  br i1 %67, label %68, label %159

68:                                               ; preds = %64
  call void @llvm.lifetime.start.p0(i64 8, ptr %17) #6
  call void @llvm.lifetime.start.p0(i64 8, ptr %18) #6
  call void @llvm.lifetime.start.p0(i64 8, ptr %19) #6
  call void @llvm.lifetime.start.p0(i64 8, ptr %20) #6
  call void @llvm.lifetime.start.p0(i64 8, ptr %21) #6
  %69 = load i64, ptr %14, align 8, !tbaa !13
  store i64 %69, ptr %21, align 8, !tbaa !13
  call void @llvm.lifetime.start.p0(i64 4, ptr %22) #6
  %70 = load ptr, ptr %11, align 8, !tbaa !9
  %71 = call i64 @strspn(ptr noundef %70, ptr noundef @.str.8) #7
  %72 = trunc i64 %71 to i32
  store i32 %72, ptr %22, align 4, !tbaa !11
  %73 = load ptr, ptr %11, align 8, !tbaa !9
  %74 = load i32, ptr %22, align 4, !tbaa !11
  %75 = sext i32 %74 to i64
  %76 = getelementptr inbounds i8, ptr %73, i64 %75
  %77 = load i8, ptr %76, align 1, !tbaa !22
  %78 = icmp ne i8 %77, 0
  br i1 %78, label %80, label %79

79:                                               ; preds = %68
  store i32 3, ptr %16, align 4
  br label %156

80:                                               ; preds = %68
  %81 = call ptr @av_get_token(ptr noundef %11, ptr noundef @.str.9)
  store ptr %81, ptr %19, align 8, !tbaa !9
  %82 = load ptr, ptr %19, align 8, !tbaa !9
  %83 = icmp ne ptr %82, null
  br i1 %83, label %85, label %84

84:                                               ; preds = %80
  store i32 -12, ptr %15, align 4, !tbaa !11
  store i32 3, ptr %16, align 4
  br label %156

85:                                               ; preds = %80
  %86 = load ptr, ptr %11, align 8, !tbaa !9
  %87 = load i8, ptr %86, align 1, !tbaa !22
  %88 = icmp ne i8 %87, 0
  br i1 %88, label %89, label %92

89:                                               ; preds = %85
  %90 = load ptr, ptr %11, align 8, !tbaa !9
  %91 = getelementptr inbounds nuw i8, ptr %90, i32 1
  store ptr %91, ptr %11, align 8, !tbaa !9
  br label %92

92:                                               ; preds = %89, %85
  %93 = load i64, ptr %21, align 8, !tbaa !13
  %94 = add i64 %93, 1
  store i64 %94, ptr %21, align 8, !tbaa !13
  %95 = icmp eq i64 %94, 1152921504606846975
  br i1 %95, label %96, label %98

96:                                               ; preds = %92
  %97 = load ptr, ptr %19, align 8, !tbaa !9
  call void @av_free(ptr noundef %97)
  store i32 -36, ptr %15, align 4, !tbaa !11
  store i32 3, ptr %16, align 4
  br label %156

98:                                               ; preds = %92
  %99 = load ptr, ptr %19, align 8, !tbaa !9
  %100 = load i32, ptr %7, align 4, !tbaa !11
  %101 = load ptr, ptr %5, align 8, !tbaa !4
  %102 = getelementptr inbounds nuw %struct.URLContext, ptr %101, i32 0, i32 8
  %103 = load ptr, ptr %5, align 8, !tbaa !4
  %104 = getelementptr inbounds nuw %struct.URLContext, ptr %103, i32 0, i32 10
  %105 = load ptr, ptr %104, align 8, !tbaa !29
  %106 = load ptr, ptr %5, align 8, !tbaa !4
  %107 = getelementptr inbounds nuw %struct.URLContext, ptr %106, i32 0, i32 11
  %108 = load ptr, ptr %107, align 8, !tbaa !30
  %109 = load ptr, ptr %5, align 8, !tbaa !4
  %110 = call i32 @ffurl_open_whitelist(ptr noundef %18, ptr noundef %99, i32 noundef %100, ptr noundef %102, ptr noundef null, ptr noundef %105, ptr noundef %108, ptr noundef %109)
  store i32 %110, ptr %15, align 4, !tbaa !11
  %111 = load ptr, ptr %19, align 8, !tbaa !9
  call void @av_free(ptr noundef %111)
  %112 = load i32, ptr %15, align 4, !tbaa !11
  %113 = icmp slt i32 %112, 0
  br i1 %113, label %114, label %115

114:                                              ; preds = %98
  store i32 3, ptr %16, align 4
  br label %156

115:                                              ; preds = %98
  %116 = load ptr, ptr %18, align 8, !tbaa !4
  %117 = call i64 @ffurl_size(ptr noundef %116)
  store i64 %117, ptr %20, align 8, !tbaa !13
  %118 = icmp slt i64 %117, 0
  br i1 %118, label %119, label %122

119:                                              ; preds = %115
  %120 = load ptr, ptr %18, align 8, !tbaa !4
  %121 = call i32 @ffurl_close(ptr noundef %120)
  store i32 -38, ptr %15, align 4, !tbaa !11
  store i32 3, ptr %16, align 4
  br label %156

122:                                              ; preds = %115
  %123 = load ptr, ptr %9, align 8, !tbaa !20
  %124 = getelementptr inbounds nuw %struct.concat_data, ptr %123, i32 0, i32 0
  %125 = load ptr, ptr %124, align 8, !tbaa !27
  %126 = load i64, ptr %21, align 8, !tbaa !13
  %127 = mul i64 16, %126
  %128 = call ptr @av_fast_realloc(ptr noundef %125, ptr noundef %13, i64 noundef %127)
  store ptr %128, ptr %17, align 8, !tbaa !25
  %129 = load ptr, ptr %17, align 8, !tbaa !25
  %130 = icmp ne ptr %129, null
  br i1 %130, label %134, label %131

131:                                              ; preds = %122
  %132 = load ptr, ptr %18, align 8, !tbaa !4
  %133 = call i32 @ffurl_close(ptr noundef %132)
  store i32 -12, ptr %15, align 4, !tbaa !11
  store i32 3, ptr %16, align 4
  br label %156

134:                                              ; preds = %122
  %135 = load ptr, ptr %17, align 8, !tbaa !25
  %136 = load ptr, ptr %9, align 8, !tbaa !20
  %137 = getelementptr inbounds nuw %struct.concat_data, ptr %136, i32 0, i32 0
  store ptr %135, ptr %137, align 8, !tbaa !27
  %138 = load ptr, ptr %18, align 8, !tbaa !4
  %139 = load ptr, ptr %9, align 8, !tbaa !20
  %140 = getelementptr inbounds nuw %struct.concat_data, ptr %139, i32 0, i32 0
  %141 = load ptr, ptr %140, align 8, !tbaa !27
  %142 = load i64, ptr %14, align 8, !tbaa !13
  %143 = getelementptr inbounds nuw %struct.concat_nodes, ptr %141, i64 %142
  %144 = getelementptr inbounds nuw %struct.concat_nodes, ptr %143, i32 0, i32 0
  store ptr %138, ptr %144, align 8, !tbaa !31
  %145 = load i64, ptr %20, align 8, !tbaa !13
  %146 = load ptr, ptr %9, align 8, !tbaa !20
  %147 = getelementptr inbounds nuw %struct.concat_data, ptr %146, i32 0, i32 0
  %148 = load ptr, ptr %147, align 8, !tbaa !27
  %149 = load i64, ptr %14, align 8, !tbaa !13
  %150 = add i64 %149, 1
  store i64 %150, ptr %14, align 8, !tbaa !13
  %151 = getelementptr inbounds nuw %struct.concat_nodes, ptr %148, i64 %149
  %152 = getelementptr inbounds nuw %struct.concat_nodes, ptr %151, i32 0, i32 1
  store i64 %145, ptr %152, align 8, !tbaa !33
  %153 = load i64, ptr %20, align 8, !tbaa !13
  %154 = load i64, ptr %12, align 8, !tbaa !13
  %155 = add nsw i64 %154, %153
  store i64 %155, ptr %12, align 8, !tbaa !13
  store i32 0, ptr %16, align 4
  br label %156

156:                                              ; preds = %134, %131, %119, %114, %96, %84, %79
  call void @llvm.lifetime.end.p0(i64 4, ptr %22) #6
  call void @llvm.lifetime.end.p0(i64 8, ptr %21) #6
  call void @llvm.lifetime.end.p0(i64 8, ptr %20) #6
  call void @llvm.lifetime.end.p0(i64 8, ptr %19) #6
  call void @llvm.lifetime.end.p0(i64 8, ptr %18) #6
  call void @llvm.lifetime.end.p0(i64 8, ptr %17) #6
  %157 = load i32, ptr %16, align 4
  switch i32 %157, label %182 [
    i32 0, label %158
    i32 3, label %159
  ]

158:                                              ; preds = %156
  br label %64, !llvm.loop !48

159:                                              ; preds = %156, %64
  %160 = call i32 @av_bprint_finalize(ptr noundef %8, ptr noundef null)
  %161 = load i64, ptr %14, align 8, !tbaa !13
  %162 = load ptr, ptr %9, align 8, !tbaa !20
  %163 = getelementptr inbounds nuw %struct.concat_data, ptr %162, i32 0, i32 1
  store i64 %161, ptr %163, align 8, !tbaa !35
  %164 = load ptr, ptr %9, align 8, !tbaa !20
  %165 = getelementptr inbounds nuw %struct.concat_data, ptr %164, i32 0, i32 1
  %166 = load i64, ptr %165, align 8, !tbaa !35
  %167 = icmp ne i64 %166, 0
  br i1 %167, label %169, label %168

168:                                              ; preds = %159
  store i32 -1094995529, ptr %15, align 4, !tbaa !11
  br label %169

169:                                              ; preds = %168, %159
  %170 = load i32, ptr %15, align 4, !tbaa !11
  %171 = icmp slt i32 %170, 0
  br i1 %171, label %172, label %175

172:                                              ; preds = %169
  %173 = load ptr, ptr %5, align 8, !tbaa !4
  %174 = call i32 @concat_close(ptr noundef %173) #8
  br label %175

175:                                              ; preds = %172, %169
  %176 = load i64, ptr %12, align 8, !tbaa !13
  %177 = load ptr, ptr %9, align 8, !tbaa !20
  %178 = getelementptr inbounds nuw %struct.concat_data, ptr %177, i32 0, i32 3
  store i64 %176, ptr %178, align 8, !tbaa !36
  %179 = load i32, ptr %15, align 4, !tbaa !11
  store i32 %179, ptr %4, align 4
  store i32 1, ptr %16, align 4
  br label %180

180:                                              ; preds = %175, %58, %50, %36, %29
  call void @llvm.lifetime.end.p0(i64 4, ptr %15) #6
  call void @llvm.lifetime.end.p0(i64 8, ptr %14) #6
  call void @llvm.lifetime.end.p0(i64 4, ptr %13) #6
  call void @llvm.lifetime.end.p0(i64 8, ptr %12) #6
  call void @llvm.lifetime.end.p0(i64 8, ptr %11) #6
  call void @llvm.lifetime.end.p0(i64 8, ptr %10) #6
  call void @llvm.lifetime.end.p0(i64 8, ptr %9) #6
  call void @llvm.lifetime.end.p0(i64 1024, ptr %8) #6
  %181 = load i32, ptr %4, align 4
  ret i32 %181

182:                                              ; preds = %156
  unreachable
}