; Function Attrs: cold nounwind optsize uwtable
define internal i32 @concatf_open(ptr noundef %0, ptr noundef %1, i32 noundef %2) #0 {
  %4 = alloca ptr, align 8
  %5 = alloca %struct.AVBPrint, align 8
  %6 = alloca ptr, align 8
  %7 = alloca ptr, align 8
  %8 = alloca i32, align 4
  %9 = alloca ptr, align 8
  store ptr %1, ptr %4, align 8, !tbaa !4
  call void @llvm.lifetime.start.p0(i64 1024, ptr nonnull %5) #5
  %10 = getelementptr inbounds nuw i8, ptr %0, i64 16
  %11 = load ptr, ptr %10, align 8, !tbaa !9
  call void @llvm.lifetime.start.p0(i64 8, ptr nonnull %6) #5
  store ptr null, ptr %6, align 8, !tbaa !39
  call void @llvm.lifetime.start.p0(i64 8, ptr nonnull %7) #5
  call void @llvm.lifetime.start.p0(i64 4, ptr nonnull %8) #5
  store i32 0, ptr %8, align 4, !tbaa !41
  %12 = call i32 @av_strstart(ptr noundef %1, ptr noundef nonnull @.str.7, ptr noundef nonnull %4) #5
  %.not = icmp eq i32 %12, 0
  %13 = load ptr, ptr %4, align 8, !tbaa !4
  br i1 %.not, label %14, label %15

14:                                               ; preds = %3
  call void (ptr, i32, ptr, ...) @av_log(ptr noundef nonnull %0, i32 noundef 16, ptr noundef nonnull @.str.5, ptr noundef %13) #5
  br label %87

15:                                               ; preds = %3
  %16 = load i8, ptr %13, align 1, !tbaa !16
  %.not60 = icmp eq i8 %16, 0
  br i1 %.not60, label %87, label %17

17:                                               ; preds = %15
  %18 = getelementptr inbounds nuw i8, ptr %0, i64 48
  %19 = getelementptr inbounds nuw i8, ptr %0, i64 72
  %20 = load ptr, ptr %19, align 8, !tbaa !22
  %21 = getelementptr inbounds nuw i8, ptr %0, i64 80
  %22 = load ptr, ptr %21, align 8, !tbaa !23
  %23 = call i32 @ffio_open_whitelist(ptr noundef nonnull %6, ptr noundef nonnull %13, i32 noundef 1, ptr noundef nonnull %18, ptr noundef null, ptr noundef %20, ptr noundef %22) #5
  %24 = icmp slt i32 %23, 0
  br i1 %24, label %87, label %25

25:                                               ; preds = %17
  call void @av_bprint_init(ptr noundef nonnull %5, i32 noundef 0, i32 noundef -1) #5
  %26 = load ptr, ptr %6, align 8, !tbaa !39
  %27 = call i32 @avio_read_to_bprint(ptr noundef %26, ptr noundef nonnull %5, i64 noundef -1) #5
  %28 = call i32 @avio_closep(ptr noundef nonnull %6) #5
  %29 = icmp slt i32 %27, 0
  br i1 %29, label %30, label %32

30:                                               ; preds = %25
  %31 = call i32 @av_bprint_finalize(ptr noundef nonnull %5, ptr noundef null) #5
  br label %87

32:                                               ; preds = %25
  %33 = load ptr, ptr %5, align 8, !tbaa !42
  store ptr %33, ptr %7, align 8, !tbaa !4
  %34 = load i8, ptr %33, align 1, !tbaa !16
  %.not6190 = icmp eq i8 %34, 0
  br i1 %.not6190, label %.thread135.sink.split, label %.lr.ph.preheader

.lr.ph.preheader:                                 ; preds = %32
  call void @llvm.lifetime.start.p0(i64 8, ptr nonnull %9) #5
  %35 = call i64 @strspn(ptr noundef nonnull %33, ptr noundef nonnull @.str.8) #6
  %sext180 = shl i64 %35, 32
  %36 = ashr exact i64 %sext180, 32
  %37 = getelementptr inbounds i8, ptr %33, i64 %36
  %38 = load i8, ptr %37, align 1, !tbaa !16
  %.not62181 = icmp eq i8 %38, 0
  br i1 %.not62181, label %.loopexit, label %.lr.ph184

.lr.ph:                                           ; preds = %65
  call void @llvm.lifetime.start.p0(i64 8, ptr nonnull %9) #5
  %39 = call i64 @strspn(ptr noundef nonnull %70, ptr noundef nonnull @.str.8) #6
  %sext = shl i64 %39, 32
  %40 = ashr exact i64 %sext, 32
  %41 = getelementptr inbounds i8, ptr %70, i64 %40
  %42 = load i8, ptr %41, align 1, !tbaa !16
  %.not62 = icmp eq i8 %42, 0
  br i1 %.not62, label %.loopexit, label %.lr.ph184

.lr.ph184:                                        ; preds = %.lr.ph.preheader, %.lr.ph
  %.04492183 = phi i64 [ %50, %.lr.ph ], [ 0, %.lr.ph.preheader ]
  %.04393182 = phi i64 [ %69, %.lr.ph ], [ 0, %.lr.ph.preheader ]
  %43 = call ptr @av_get_token(ptr noundef nonnull %7, ptr noundef nonnull @.str.9) #5
  %.not63 = icmp eq ptr %43, null
  br i1 %.not63, label %.loopexit, label %44

44:                                               ; preds = %.lr.ph184
  %45 = load ptr, ptr %7, align 8, !tbaa !4
  %46 = load i8, ptr %45, align 1, !tbaa !16
  %.not64 = icmp eq i8 %46, 0
  br i1 %.not64, label %49, label %47

47:                                               ; preds = %44
  %48 = getelementptr inbounds nuw i8, ptr %45, i64 1
  store ptr %48, ptr %7, align 8, !tbaa !4
  br label %49

49:                                               ; preds = %47, %44
  %50 = add i64 %.04492183, 1
  %51 = icmp eq i64 %50, 1152921504606846975
  br i1 %51, label %.loopexit.thread130, label %52

.loopexit.thread130:                              ; preds = %49
  call void @av_free(ptr noundef nonnull %43) #5
  call void @llvm.lifetime.end.p0(i64 8, ptr nonnull %9) #5
  br label %.thread135.sink.split

52:                                               ; preds = %49
  %53 = load ptr, ptr %19, align 8, !tbaa !22
  %54 = load ptr, ptr %21, align 8, !tbaa !23
  %55 = call i32 @ffurl_open_whitelist(ptr noundef nonnull %9, ptr noundef nonnull %43, i32 noundef %2, ptr noundef nonnull %18, ptr noundef null, ptr noundef %53, ptr noundef %54, ptr noundef nonnull %0) #5
  call void @av_free(ptr noundef nonnull %43) #5
  %56 = icmp slt i32 %55, 0
  br i1 %56, label %.loopexit, label %57

57:                                               ; preds = %52
  %58 = load ptr, ptr %9, align 8, !tbaa !24
  %59 = call i64 @ffurl_size(ptr noundef %58) #5
  %60 = icmp slt i64 %59, 0
  br i1 %60, label %.loopexit.sink.split, label %61

61:                                               ; preds = %57
  %62 = load ptr, ptr %11, align 8, !tbaa !19
  %63 = shl i64 %50, 4
  %64 = call ptr @av_fast_realloc(ptr noundef %62, ptr noundef nonnull %8, i64 noundef %63) #5
  %.not65 = icmp eq ptr %64, null
  br i1 %.not65, label %.loopexit.sink.split, label %65

65:                                               ; preds = %61
  store ptr %64, ptr %11, align 8, !tbaa !19
  %66 = load ptr, ptr %9, align 8, !tbaa !24
  %67 = getelementptr inbounds nuw %struct.concat_nodes, ptr %64, i64 %.04492183
  store ptr %66, ptr %67, align 8, !tbaa !26
  %68 = getelementptr inbounds nuw %struct.concat_nodes, ptr %64, i64 %.04492183, i32 1
  store i64 %59, ptr %68, align 8, !tbaa !28
  %69 = add nuw nsw i64 %59, %.04393182
  call void @llvm.lifetime.end.p0(i64 8, ptr nonnull %9) #5
  %70 = load ptr, ptr %7, align 8, !tbaa !4
  %71 = load i8, ptr %70, align 1, !tbaa !16
  %.not61 = icmp eq i8 %71, 0
  br i1 %.not61, label %.thread139, label %.lr.ph

.thread139:                                       ; preds = %65
  %72 = call i32 @av_bprint_finalize(ptr noundef nonnull %5, ptr noundef null) #5
  %73 = getelementptr inbounds nuw i8, ptr %11, i64 8
  store i64 %50, ptr %73, align 8, !tbaa !30
  br label %84

.loopexit.sink.split:                             ; preds = %61, %57
  %.249.ph.ph = phi i32 [ -38, %57 ], [ -12, %61 ]
  %74 = load ptr, ptr %9, align 8, !tbaa !24
  %75 = call i32 @ffurl_close(ptr noundef %74) #5
  br label %.loopexit

.loopexit:                                        ; preds = %.lr.ph, %.lr.ph184, %52, %.lr.ph.preheader, %.loopexit.sink.split
  %.04393171 = phi i64 [ %.04393182, %.loopexit.sink.split ], [ 0, %.lr.ph.preheader ], [ %.04393182, %52 ], [ %.04393182, %.lr.ph184 ], [ %69, %.lr.ph ]
  %.04492167 = phi i64 [ %.04492183, %.loopexit.sink.split ], [ 0, %.lr.ph.preheader ], [ %.04492183, %52 ], [ %.04492183, %.lr.ph184 ], [ %50, %.lr.ph ]
  %.249.ph = phi i32 [ %.249.ph.ph, %.loopexit.sink.split ], [ %27, %.lr.ph.preheader ], [ %55, %52 ], [ -12, %.lr.ph184 ], [ %55, %.lr.ph ]
  call void @llvm.lifetime.end.p0(i64 8, ptr nonnull %9) #5
  %76 = call i32 @av_bprint_finalize(ptr noundef nonnull %5, ptr noundef null) #5
  %77 = getelementptr inbounds nuw i8, ptr %11, i64 8
  store i64 %.04492167, ptr %77, align 8, !tbaa !30
  %.not66 = icmp eq i64 %.04492167, 0
  br i1 %.not66, label %.thread135, label %78

78:                                               ; preds = %.loopexit
  %79 = icmp slt i32 %.249.ph, 0
  br i1 %79, label %.thread135, label %84

.thread135.sink.split:                            ; preds = %32, %.loopexit.thread130
  %.sink = phi i64 [ 1152921504606846974, %.loopexit.thread130 ], [ 0, %32 ]
  %.ph = phi i32 [ -36, %.loopexit.thread130 ], [ -1094995529, %32 ]
  %.04376122138.ph = phi i64 [ %.04393182, %.loopexit.thread130 ], [ 0, %32 ]
  %80 = call i32 @av_bprint_finalize(ptr noundef nonnull %5, ptr noundef null) #5
  %81 = getelementptr inbounds nuw i8, ptr %11, i64 8
  store i64 %.sink, ptr %81, align 8, !tbaa !30
  br label %.thread135

.thread135:                                       ; preds = %.thread135.sink.split, %.loopexit, %78
  %82 = phi i32 [ %.249.ph, %78 ], [ -1094995529, %.loopexit ], [ %.ph, %.thread135.sink.split ]
  %.04376122138 = phi i64 [ %.04393171, %78 ], [ %.04393171, %.loopexit ], [ %.04376122138.ph, %.thread135.sink.split ]
  %83 = call i32 @concat_close(ptr noundef nonnull %0) #7
  br label %84

84:                                               ; preds = %.thread139, %.thread135, %78
  %85 = phi i32 [ %82, %.thread135 ], [ %.249.ph, %78 ], [ %55, %.thread139 ]
  %.04376122137 = phi i64 [ %.04376122138, %.thread135 ], [ %.04393171, %78 ], [ %69, %.thread139 ]
  %86 = getelementptr inbounds nuw i8, ptr %11, i64 24
  store i64 %.04376122137, ptr %86, align 8, !tbaa !31
  br label %87

87:                                               ; preds = %17, %15, %84, %30, %14
  %.0 = phi i32 [ %27, %30 ], [ %85, %84 ], [ -22, %14 ], [ -2, %15 ], [ %23, %17 ]
  call void @llvm.lifetime.end.p0(i64 4, ptr nonnull %8) #5
  call void @llvm.lifetime.end.p0(i64 8, ptr nonnull %7) #5
  call void @llvm.lifetime.end.p0(i64 8, ptr nonnull %6) #5
  call void @llvm.lifetime.end.p0(i64 1024, ptr nonnull %5) #5
  ret i32 %.0
}